target datalayout = "e-m:e-p270:32:32-p271:32:32-p272:64:64-i64:64-i128:128-f80:128-n8:16:32:64-S128"
target triple = "x86_64-pc-linux-gnu"

%struct.H5PB_t = type { i64, i64, i32, i32, i32, i32, i32, i32, ptr, ptr, i64, ptr, ptr, ptr, [2 x i32], [2 x i32], [2 x i32], [2 x i32], [2 x i32] }

@H5PB_init_g = global i8 0, align 1
@H5_libterm_g = external global i8, align 1

; Function Attrs: nounwind uwtable
define i32 @H5PB_get_stats(ptr noundef %0, ptr noundef %1, ptr noundef %2, ptr noundef %3, ptr noundef %4, ptr noundef %5) #0 {
  %7 = alloca ptr, align 8
  %8 = alloca ptr, align 8
  %9 = alloca ptr, align 8
  %10 = alloca ptr, align 8
  %11 = alloca ptr, align 8
  %12 = alloca ptr, align 8
  store ptr %0, ptr %7, align 8, !tbaa !3
  store ptr %1, ptr %8, align 8, !tbaa !14
  store ptr %2, ptr %9, align 8, !tbaa !14
  store ptr %3, ptr %10, align 8, !tbaa !14
  store ptr %4, ptr %11, align 8, !tbaa !14
  store ptr %5, ptr %12, align 8, !tbaa !14
  %13 = load i8, ptr @H5PB_init_g, align 1, !tbaa !8, !range !10, !noundef !11
  %14 = trunc i8 %13 to i1
  br i1 %14, label %19, label %15

15:                                               ; preds = %6
  %16 = load i8, ptr @H5_libterm_g, align 1, !tbaa !8, !range !10, !noundef !11
  %17 = trunc i8 %16 to i1
  %18 = xor i1 %17, true
  br label %19

19:                                               ; preds = %15, %6
  %20 = phi i1 [ false, %6 ], [ %18, %15 ]
  %21 = xor i1 %20, true
  %22 = xor i1 %21, true
  %23 = zext i1 %22 to i32
  %24 = sext i32 %23 to i64
  %25 = call i64 @llvm.expect.i64(i64 %24, i64 0)
  %26 = icmp ne i64 %25, 0
  br i1 %26, label %27, label %28

27:                                               ; preds = %19
  store i8 1, ptr @H5PB_init_g, align 1, !tbaa !8
  br label %28

28:                                               ; preds = %27, %19
  %29 = load i8, ptr @H5PB_init_g, align 1, !tbaa !8, !range !10, !noundef !11
  %30 = trunc i8 %29 to i1
  br i1 %30, label %35, label %31

31:                                               ; preds = %28
  %32 = load i8, ptr @H5_libterm_g, align 1, !tbaa !8, !range !10, !noundef !11
  %33 = trunc i8 %32 to i1
  %34 = xor i1 %33, true
  br label %35

35:                                               ; preds = %31, %28
  %36 = phi i1 [ true, %28 ], [ %34, %31 ]
  %37 = xor i1 %36, true
  %38 = xor i1 %37, true
  %39 = zext i1 %38 to i32
  %40 = sext i32 %39 to i64
  %41 = call i64 @llvm.expect.i64(i64 %40, i64 1)
  %42 = icmp ne i64 %41, 0
  br i1 %42, label %43, label %104

43:                                               ; preds = %35
  %44 = load ptr, ptr %7, align 8, !tbaa !3
  %45 = getelementptr inbounds nuw %struct.H5PB_t, ptr %44, i32 0, i32 14
  %46 = getelementptr inbounds [2 x i32], ptr %45, i64 0, i64 0
  %47 = load i32, ptr %46, align 8, !tbaa !12
  %48 = load ptr, ptr %8, align 8, !tbaa !14
  %49 = getelementptr inbounds i32, ptr %48, i64 0
  store i32 %47, ptr %49, align 4, !tbaa !12
  %50 = load ptr, ptr %7, align 8, !tbaa !3
  %51 = getelementptr inbounds nuw %struct.H5PB_t, ptr %50, i32 0, i32 14
  %52 = getelementptr inbounds [2 x i32], ptr %51, i64 0, i64 1
  %53 = load i32, ptr %52, align 4, !tbaa !12
  %54 = load ptr, ptr %8, align 8, !tbaa !14
  %55 = getelementptr inbounds i32, ptr %54, i64 1
  store i32 %53, ptr %55, align 4, !tbaa !12
  %56 = load ptr, ptr %7, align 8, !tbaa !3
  %57 = getelementptr inbounds nuw %struct.H5PB_t, ptr %56, i32 0, i32 15
  %58 = getelementptr inbounds [2 x i32], ptr %57, i64 0, i64 0
  %59 = load i32, ptr %58, align 8, !tbaa !12
  %60 = load ptr, ptr %9, align 8, !tbaa !14
  %61 = getelementptr inbounds i32, ptr %60, i64 0
  store i32 %59, ptr %61, align 4, !tbaa !12
  %62 = load ptr, ptr %7, align 8, !tbaa !3
  %63 = getelementptr inbounds nuw %struct.H5PB_t, ptr %62, i32 0, i32 15
  %64 = getelementptr inbounds [2 x i32], ptr %63, i64 0, i64 1
  %65 = load i32, ptr %64, align 4, !tbaa !12
  %66 = load ptr, ptr %9, align 8, !tbaa !14
  %67 = getelementptr inbounds i32, ptr %66, i64 1
  store i32 %65, ptr %67, align 4, !tbaa !12
  %68 = load ptr, ptr %7, align 8, !tbaa !3
  %69 = getelementptr inbounds nuw %struct.H5PB_t, ptr %68, i32 0, i32 16
  %70 = getelementptr inbounds [2 x i32], ptr %69, i64 0, i64 0
  %71 = load i32, ptr %70, align 8, !tbaa !12
  %72 = load ptr, ptr %10, align 8, !tbaa !14
  %73 = getelementptr inbounds i32, ptr %72, i64 0
  store i32 %71, ptr %73, align 4, !tbaa !12
  %74 = load ptr, ptr %7, align 8, !tbaa !3
  %75 = getelementptr inbounds nuw %struct.H5PB_t, ptr %74, i32 0, i32 16
  %76 = getelementptr inbounds [2 x i32], ptr %75, i64 0, i64 1
  %77 = load i32, ptr %76, align 4, !tbaa !12
  %78 = load ptr, ptr %10, align 8, !tbaa !14
  %79 = getelementptr inbounds i32, ptr %78, i64 1
  store i32 %77, ptr %79, align 4, !tbaa !12
  %80 = load ptr, ptr %7, align 8, !tbaa !3
  %81 = getelementptr inbounds nuw %struct.H5PB_t, ptr %80, i32 0, i32 17
  %82 = getelementptr inbounds [2 x i32], ptr %81, i64 0, i64 0
  %83 = load i32, ptr %82, align 8, !tbaa !12
  %84 = load ptr, ptr %11, align 8, !tbaa !14
  %85 = getelementptr inbounds i32, ptr %84, i64 0
  store i32 %83, ptr %85, align 4, !tbaa !12
  %86 = load ptr, ptr %7, align 8, !tbaa !3
  %87 = getelementptr inbounds nuw %struct.H5PB_t, ptr %86, i32 0, i32 17
  %88 = getelementptr inbounds [2 x i32], ptr %87, i64 0, i64 1
  %89 = load i32, ptr %88, align 4, !tbaa !12
  %90 = load ptr, ptr %11, align 8, !tbaa !14
  %91 = getelementptr inbounds i32, ptr %90, i64 1
  store i32 %89, ptr %91, align 4, !tbaa !12
  %92 = load ptr, ptr %7, align 8, !tbaa !3
  %93 = getelementptr inbounds nuw %struct.H5PB_t, ptr %92, i32 0, i32 18
  %94 = getelementptr inbounds [2 x i32], ptr %93, i64 0, i64 0
  %95 = load i32, ptr %94, align 8, !tbaa !12
  %96 = load ptr, ptr %12, align 8, !tbaa !14
  %97 = getelementptr inbounds i32, ptr %96, i64 0
  store i32 %95, ptr %97, align 4, !tbaa !12
  %98 = load ptr, ptr %7, align 8, !tbaa !3
  %99 = getelementptr inbounds nuw %struct.H5PB_t, ptr %98, i32 0, i32 18
  %100 = getelementptr inbounds [2 x i32], ptr %99, i64 0, i64 1
  %101 = load i32, ptr %100, align 4, !tbaa !12
  %102 = load ptr, ptr %12, align 8, !tbaa !14
  %103 = getelementptr inbounds i32, ptr %102, i64 1
  store i32 %101, ptr %103, align 4, !tbaa !12
  br label %104

104:                                              ; preds = %43, %35
  ret i32 0
}