; Function Attrs: mustprogress nofree norecurse nosync nounwind willreturn memory(readwrite, inaccessiblemem: none) uwtable
define noundef i32 @H5PB_get_stats(ptr noundef readonly captures(none) %0, ptr noundef writeonly captures(none) %1, ptr noundef writeonly captures(none) %2, ptr noundef writeonly captures(none) %3, ptr noundef writeonly captures(none) %4, ptr noundef writeonly captures(none) %5) local_unnamed_addr #1 {
  %7 = load i8, ptr @H5PB_init_g, align 1, !tbaa !3, !range !7, !noundef !8
  %8 = trunc nuw i8 %7 to i1
  %9 = load i8, ptr @H5_libterm_g, align 1, !range !7
  %10 = trunc nuw i8 %9 to i1
  %11 = select i1 %8, i1 true, i1 %10
  br i1 %11, label %12, label %.thread, !prof !9

.thread:                                          ; preds = %6
  store i8 1, ptr @H5PB_init_g, align 1, !tbaa !3
  br label %15

12:                                               ; preds = %6
  %13 = xor i1 %10, true
  %14 = select i1 %8, i1 true, i1 %13
  br i1 %14, label %15, label %41, !prof !10

15:                                               ; preds = %.thread, %12
  %16 = getelementptr inbounds nuw i8, ptr %0, i64 88
  %17 = load i32, ptr %16, align 8, !tbaa !11
  store i32 %17, ptr %1, align 4, !tbaa !11
  %18 = getelementptr inbounds nuw i8, ptr %0, i64 92
  %19 = load i32, ptr %18, align 4, !tbaa !11
  %20 = getelementptr inbounds nuw i8, ptr %1, i64 4
  store i32 %19, ptr %20, align 4, !tbaa !11
  %21 = getelementptr inbounds nuw i8, ptr %0, i64 96
  %22 = load i32, ptr %21, align 8, !tbaa !11
  store i32 %22, ptr %2, align 4, !tbaa !11
  %23 = getelementptr inbounds nuw i8, ptr %0, i64 100
  %24 = load i32, ptr %23, align 4, !tbaa !11
  %25 = getelementptr inbounds nuw i8, ptr %2, i64 4
  store i32 %24, ptr %25, align 4, !tbaa !11
  %26 = getelementptr inbounds nuw i8, ptr %0, i64 104
  %27 = load i32, ptr %26, align 8, !tbaa !11
  store i32 %27, ptr %3, align 4, !tbaa !11
  %28 = getelementptr inbounds nuw i8, ptr %0, i64 108
  %29 = load i32, ptr %28, align 4, !tbaa !11
  %30 = getelementptr inbounds nuw i8, ptr %3, i64 4
  store i32 %29, ptr %30, align 4, !tbaa !11
  %31 = getelementptr inbounds nuw i8, ptr %0, i64 112
  %32 = load i32, ptr %31, align 8, !tbaa !11
  store i32 %32, ptr %4, align 4, !tbaa !11
  %33 = getelementptr inbounds nuw i8, ptr %0, i64 116
  %34 = load i32, ptr %33, align 4, !tbaa !11
  %35 = getelementptr inbounds nuw i8, ptr %4, i64 4
  store i32 %34, ptr %35, align 4, !tbaa !11
  %36 = getelementptr inbounds nuw i8, ptr %0, i64 120
  %37 = load i32, ptr %36, align 8, !tbaa !11
  store i32 %37, ptr %5, align 4, !tbaa !11
  %38 = getelementptr inbounds nuw i8, ptr %0, i64 124
  %39 = load i32, ptr %38, align 4, !tbaa !11
  %40 = getelementptr inbounds nuw i8, ptr %5, i64 4
  store i32 %39, ptr %40, align 4, !tbaa !11
  br label %41

41:                                               ; preds = %15, %12
  ret i32 0
}